; Function Attrs: mustprogress nounwind uwtable
define internal noundef i32 @_ZN4node9inspector12_GLOBAL__N_111HttpHandler6OnPathEP18llhttp__internal_sPKcm(ptr noundef %parser, ptr noundef %at, i64 noundef %length) #0 align 2 {
entry:
  %0 = ptrtoint ptr %parser to i64
  %sub.i.i.i = add i64 %0, -32
  %1 = inttoptr i64 %sub.i.i.i to ptr
  %path_ = getelementptr inbounds i8, ptr %1, i64 416
  %call1 = tail call noundef nonnull align 8 dereferenceable(32) ptr @_ZNSt7__cxx1112basic_stringIcSt11char_traitsIcESaIcEE6appendEPKcm(ptr noundef nonnull align 8 dereferenceable(32) %path_, ptr noundef %at, i64 noundef %length) #19
  ret i32 0
}